target datalayout = "e-m:e-p270:32:32-p271:32:32-p272:64:64-i64:64-i128:128-f80:128-n8:16:32:64-S128"
target triple = "x86_64-pc-linux-gnu"

%struct.Saig_ParBmc_t_ = type { i32, i32, i32, i32, i32, i32, i32, i32, i32, i32, i32, i32, i32, i32, i32, i32, i32, i32, i32, i32, i32, i32, i32, ptr, i32, i32, i32, i32, i64, ptr, i32, ptr }
%struct.timespec = type { i64, i64 }

; Function Attrs: inlinehint nounwind uwtable
define internal i64 @Abc_Clock() #5 {
  %1 = alloca i64, align 8
  %2 = alloca %struct.timespec, align 8
  %3 = alloca i32, align 4
  %4 = alloca i64, align 8
  call void @llvm.lifetime.start.p0(i64 16, ptr %2) #11
  %5 = call i32 @clock_gettime(i32 noundef 1, ptr noundef %2) #11
  %6 = icmp slt i32 %5, 0
  br i1 %6, label %7, label %8

7:                                                ; preds = %0
  store i64 -1, ptr %1, align 8
  store i32 1, ptr %3, align 4
  br label %19

8:                                                ; preds = %0
  call void @llvm.lifetime.start.p0(i64 8, ptr %4) #11
  %9 = getelementptr inbounds nuw %struct.timespec, ptr %2, i32 0, i32 0
  %10 = load i64, ptr %9, align 8, !tbaa !258
  %11 = mul nsw i64 %10, 1000000
  store i64 %11, ptr %4, align 8, !tbaa !121
  %12 = getelementptr inbounds nuw %struct.timespec, ptr %2, i32 0, i32 1
  %13 = load i64, ptr %12, align 8, !tbaa !260
  %14 = mul nsw i64 %13, 1000000
  %15 = sdiv i64 %14, 1000000000
  %16 = load i64, ptr %4, align 8, !tbaa !121
  %17 = add nsw i64 %16, %15
  store i64 %17, ptr %4, align 8, !tbaa !121
  %18 = load i64, ptr %4, align 8, !tbaa !121
  store i64 %18, ptr %1, align 8
  store i32 1, ptr %3, align 4
  call void @llvm.lifetime.end.p0(i64 8, ptr %4) #11
  br label %19

19:                                               ; preds = %8, %7
  call void @llvm.lifetime.end.p0(i64 16, ptr %2) #11
  %20 = load i64, ptr %1, align 8
  ret i64 %20
}

; Function Attrs: nounwind uwtable
define i64 @Saig_ManBmcTimeToStop(ptr noundef %0, i64 noundef %1) #0 {
  %3 = alloca ptr, align 8
  %4 = alloca i64, align 8
  %5 = alloca i64, align 8
  %6 = alloca i64, align 8
  store ptr %0, ptr %3, align 8, !tbaa !183
  store i64 %1, ptr %4, align 8, !tbaa !121
  call void @llvm.lifetime.start.p0(i64 8, ptr %5) #11
  %7 = load ptr, ptr %3, align 8, !tbaa !183
  %8 = getelementptr inbounds nuw %struct.Saig_ParBmc_t_, ptr %7, i32 0, i32 6
  %9 = load i32, ptr %8, align 8, !tbaa !190
  %10 = icmp ne i32 %9, 0
  br i1 %10, label %11, label %19

11:                                               ; preds = %2
  %12 = load ptr, ptr %3, align 8, !tbaa !183
  %13 = getelementptr inbounds nuw %struct.Saig_ParBmc_t_, ptr %12, i32 0, i32 6
  %14 = load i32, ptr %13, align 8, !tbaa !190
  %15 = sext i32 %14 to i64
  %16 = mul nsw i64 %15, 1000000
  %17 = call i64 @Abc_Clock()
  %18 = add nsw i64 %16, %17
  br label %20

19:                                               ; preds = %2
  br label %20

20:                                               ; preds = %19, %11
  %21 = phi i64 [ %18, %11 ], [ 0, %19 ]
  store i64 %21, ptr %5, align 8, !tbaa !121
  call void @llvm.lifetime.start.p0(i64 8, ptr %6) #11
  store i64 0, ptr %6, align 8, !tbaa !121
  %22 = load i64, ptr %4, align 8, !tbaa !121
  %23 = icmp ne i64 %22, 0
  br i1 %23, label %24, label %37

24:                                               ; preds = %20
  %25 = load i64, ptr %5, align 8, !tbaa !121
  %26 = icmp ne i64 %25, 0
  br i1 %26, label %27, label %37

27:                                               ; preds = %24
  %28 = load i64, ptr %4, align 8, !tbaa !121
  %29 = load i64, ptr %5, align 8, !tbaa !121
  %30 = icmp slt i64 %28, %29
  br i1 %30, label %31, label %33

31:                                               ; preds = %27
  %32 = load i64, ptr %4, align 8, !tbaa !121
  br label %35

33:                                               ; preds = %27
  %34 = load i64, ptr %5, align 8, !tbaa !121
  br label %35

35:                                               ; preds = %33, %31
  %36 = phi i64 [ %32, %31 ], [ %34, %33 ]
  store i64 %36, ptr %6, align 8, !tbaa !121
  br label %49

37:                                               ; preds = %24, %20
  %38 = load i64, ptr %4, align 8, !tbaa !121
  %39 = icmp ne i64 %38, 0
  br i1 %39, label %40, label %42

40:                                               ; preds = %37
  %41 = load i64, ptr %4, align 8, !tbaa !121
  store i64 %41, ptr %6, align 8, !tbaa !121
  br label %48

42:                                               ; preds = %37
  %43 = load i64, ptr %5, align 8, !tbaa !121
  %44 = icmp ne i64 %43, 0
  br i1 %44, label %45, label %47

45:                                               ; preds = %42
  %46 = load i64, ptr %5, align 8, !tbaa !121
  store i64 %46, ptr %6, align 8, !tbaa !121
  br label %47

47:                                               ; preds = %45, %42
  br label %48

48:                                               ; preds = %47, %40
  br label %49

49:                                               ; preds = %48, %35
  %50 = load i64, ptr %6, align 8, !tbaa !121
  call void @llvm.lifetime.end.p0(i64 8, ptr %6) #11
  call void @llvm.lifetime.end.p0(i64 8, ptr %5) #11
  ret i64 %50
}