; Function Attrs: nounwind uwtable
define i64 @Saig_ManBmcTimeToStop(ptr noundef readonly captures(none) %0, i64 noundef %1) local_unnamed_addr #0 {
  %3 = alloca %struct.timespec, align 8
  %4 = getelementptr inbounds nuw i8, ptr %0, i64 24
  %5 = load i32, ptr %4, align 8, !tbaa !190
  %.not = icmp eq i32 %5, 0
  br i1 %.not, label %.thread, label %7

.thread:                                          ; preds = %2
  %6 = icmp ne i64 %1, 0
  br label %25

7:                                                ; preds = %2
  %8 = sext i32 %5 to i64
  %9 = mul nsw i64 %8, 1000000
  call void @llvm.lifetime.start.p0(i64 16, ptr nonnull %3) #24
  %10 = call i32 @clock_gettime(i32 noundef 1, ptr noundef nonnull %3) #24
  %11 = icmp slt i32 %10, 0
  br i1 %11, label %19, label %12

12:                                               ; preds = %7
  %13 = load i64, ptr %3, align 8, !tbaa !191
  %14 = mul nsw i64 %13, 1000000
  %15 = getelementptr inbounds nuw i8, ptr %3, i64 8
  %16 = load i64, ptr %15, align 8, !tbaa !193
  %17 = sdiv i64 %16, 1000
  %18 = add nsw i64 %17, %14
  br label %19

19:                                               ; preds = %12, %7
  %.0.i = phi i64 [ %18, %12 ], [ -1, %7 ]
  call void @llvm.lifetime.end.p0(i64 16, ptr nonnull %3) #24
  %20 = add nsw i64 %.0.i, %9
  %21 = icmp ne i64 %1, 0
  %22 = icmp ne i64 %20, 0
  %or.cond = select i1 %21, i1 %22, i1 false
  br i1 %or.cond, label %23, label %25

23:                                               ; preds = %19
  %24 = call i64 @llvm.smin.i64(i64 %1, i64 %20)
  br label %28

25:                                               ; preds = %.thread, %19
  %26 = phi i1 [ %6, %.thread ], [ %21, %19 ]
  %27 = phi i64 [ 0, %.thread ], [ %20, %19 ]
  %spec.select17 = select i1 %26, i64 %1, i64 %27
  br label %28

28:                                               ; preds = %25, %23
  %.0 = phi i64 [ %24, %23 ], [ %spec.select17, %25 ]
  ret i64 %.0
}